target datalayout = "e-m:e-p270:32:32-p271:32:32-p272:64:64-i64:64-i128:128-f80:128-n8:16:32:64-S128"
target triple = "x86_64-pc-linux-gnu"

; Function Attrs: mustprogress uwtable
define void @_ZN7rocksdb19TransactionBaseImpl15ReleaseSnapshotEPKNS_8SnapshotEPNS_2DBE(ptr noundef nonnull align 8 dereferenceable(400) %0, ptr noundef %1, ptr noundef %2) #5 align 2 {
  %4 = alloca ptr, align 8
  %5 = alloca ptr, align 8
  %6 = alloca ptr, align 8
  store ptr %0, ptr %4, align 8, !tbaa !64
  store ptr %1, ptr %5, align 8, !tbaa !514
  store ptr %2, ptr %6, align 8, !tbaa !66
  %7 = load ptr, ptr %5, align 8, !tbaa !514
  %8 = icmp ne ptr %7, null
  br i1 %8, label %9, label %15

9:                                                ; preds = %3
  %10 = load ptr, ptr %6, align 8, !tbaa !66
  %11 = load ptr, ptr %5, align 8, !tbaa !514
  %12 = load ptr, ptr %10, align 8, !tbaa !58
  %13 = getelementptr inbounds ptr, ptr %12, i64 63
  %14 = load ptr, ptr %13, align 8
  call void %14(ptr noundef nonnull align 8 dereferenceable(8) %10, ptr noundef %11)
  br label %15

15:                                               ; preds = %9, %3
  ret void
}