; Function Attrs: mustprogress uwtable
define void @_ZN7rocksdb19TransactionBaseImpl15ReleaseSnapshotEPKNS_8SnapshotEPNS_2DBE(ptr nonnull readnone align 8 captures(none) %0, ptr noundef %1, ptr noundef %2) #4 align 2 {
  %.not = icmp eq ptr %1, null
  br i1 %.not, label %8, label %4

4:                                                ; preds = %3
  %5 = load ptr, ptr %2, align 8, !tbaa !27
  %6 = getelementptr inbounds nuw i8, ptr %5, i64 504
  %7 = load ptr, ptr %6, align 8
  tail call void %7(ptr noundef nonnull align 8 dereferenceable(8) %2, ptr noundef nonnull %1)
  br label %8

8:                                                ; preds = %4, %3
  ret void
}